target datalayout = "e-m:e-p270:32:32-p271:32:32-p272:64:64-i64:64-i128:128-f80:128-n8:16:32:64-S128"
target triple = "x86_64-unknown-linux-gnu"

%struct.ssl_st = type { i32, i16, i16, ptr, ptr, ptr, ptr, ptr, i32, i32, ptr, ptr, i32, i32, ptr, ptr, ptr, ptr, ptr, ptr, ptr, ptr, i32, i32, [32 x i8], ptr, ptr, ptr, ptr, ptr, ptr, ptr, i64, %struct.crypto_ex_data_st, ptr, i32, i32, i32, i32, i16, ptr, i32, i64, ptr, ptr, ptr, ptr, ptr, ptr, i32, i32, ptr, ptr, i8, i8, i32 }
%struct.crypto_ex_data_st = type { ptr }
%struct.ssl3_state_st = type { [8 x i8], [8 x i8], [32 x i8], [32 x i8], i8, i8, %struct.ssl3_buffer_st, %struct.ssl3_buffer_st, %struct.ssl3_record_st, i8, i32, i32, i32, i32, ptr, ptr, %struct.env_md_ctx_st, %struct.env_md_ctx_st, i8, i32, [2 x i8], i32, i8, i8, ptr, ptr, ptr, %struct.anon, [64 x i8], i8, [64 x i8], i8, i32, i32, ptr, i64, ptr, i64, i8, [64 x i8] }
%struct.ssl3_buffer_st = type { ptr, i16, i16, i16 }
%struct.ssl3_record_st = type { i8, i16, ptr }
%struct.env_md_ctx_st = type { ptr, ptr, ptr, ptr }
%struct.anon = type { [64 x i8], i32, [64 x i8], i32, i64, i32, ptr, i32, i32, %union.anon, %union.anon.0, i8, i32, ptr, ptr, i64, ptr, i8, i8, i8, i8, i32, i8, ptr, i64, i8, ptr, i8, i8, i8, %struct.ssl_ecdh_ctx_st, ptr, i16 }
%union.anon = type { i32 }
%union.anon.0 = type { i16 }
%struct.ssl_ecdh_ctx_st = type { ptr, ptr }

; Function Attrs: nounwind uwtable
define hidden i32 @ssl3_new(ptr noundef %ssl) #0 {
entry:
  %retval = alloca i32, align 4
  %ssl.addr = alloca ptr, align 8
  %s3 = alloca ptr, align 8
  store ptr %ssl, ptr %ssl.addr, align 8
  %call = call noalias ptr @malloc(i64 noundef 840) #7
  store ptr %call, ptr %s3, align 8
  %0 = load ptr, ptr %s3, align 8
  %cmp = icmp eq ptr %0, null
  br i1 %cmp, label %if.then, label %if.end

if.then:                                          ; preds = %entry
  br label %err

if.end:                                           ; preds = %entry
  %1 = load ptr, ptr %s3, align 8
  call void @llvm.memset.p0.i64(ptr align 8 %1, i8 0, i64 840, i1 false)
  %2 = load ptr, ptr %s3, align 8
  %handshake_hash = getelementptr inbounds %struct.ssl3_state_st, ptr %2, i32 0, i32 16
  call void @EVP_MD_CTX_init(ptr noundef %handshake_hash)
  %3 = load ptr, ptr %s3, align 8
  %handshake_md5 = getelementptr inbounds %struct.ssl3_state_st, ptr %3, i32 0, i32 17
  call void @EVP_MD_CTX_init(ptr noundef %handshake_md5)
  %4 = load ptr, ptr %s3, align 8
  %5 = load ptr, ptr %ssl.addr, align 8
  %s31 = getelementptr inbounds %struct.ssl_st, ptr %5, i32 0, i32 14
  store ptr %4, ptr %s31, align 8
  %6 = load ptr, ptr %ssl.addr, align 8
  %version = getelementptr inbounds %struct.ssl_st, ptr %6, i32 0, i32 0
  store i32 771, ptr %version, align 8
  store i32 1, ptr %retval, align 4
  br label %return

err:                                              ; preds = %if.then
  store i32 0, ptr %retval, align 4
  br label %return

return:                                           ; preds = %err, %if.end
  %7 = load i32, ptr %retval, align 4
  ret i32 %7
}