; Function Attrs: nounwind uwtable
define hidden range(i32 0, 2) i32 @ssl3_new(ptr noundef writeonly captures(none) %ssl) local_unnamed_addr #1 {
entry:
  %calloc = tail call dereferenceable_or_null(840) ptr @calloc(i64 1, i64 840)
  %cmp = icmp eq ptr %calloc, null
  br i1 %cmp, label %return, label %if.end

if.end:                                           ; preds = %entry
  %handshake_hash = getelementptr inbounds nuw i8, ptr %calloc, i64 176
  tail call void @EVP_MD_CTX_init(ptr noundef nonnull %handshake_hash) #14
  %handshake_md5 = getelementptr inbounds nuw i8, ptr %calloc, i64 208
  tail call void @EVP_MD_CTX_init(ptr noundef nonnull %handshake_md5) #14
  %s31 = getelementptr inbounds nuw i8, ptr %ssl, i64 80
  store ptr %calloc, ptr %s31, align 8
  store i32 771, ptr %ssl, align 8
  br label %return

return:                                           ; preds = %entry, %if.end
  %retval.0 = phi i32 [ 1, %if.end ], [ 0, %entry ]
  ret i32 %retval.0
}